target datalayout = "e-m:e-p270:32:32-p271:32:32-p272:64:64-i64:64-i128:128-f80:128-n8:16:32:64-S128"
target triple = "x86_64-pc-linux-gnu"

%union.SourceSpan = type { i64 }
%struct.Signature_ = type <{ %struct.CalleeAttributes, i16, i8, i32, i32, [4 x i8], ptr }>
%struct.CalleeAttributes = type { i8 }
%struct.Decl_ = type { ptr, ptr, %union.SourceSpan, i64, %union.anon, i32, %union.anon.0, i64, ptr, ptr, ptr, %union.anon.1 }
%union.anon = type { ptr }
%union.anon.0 = type { i16 }
%union.anon.1 = type { %struct.FuncDecl }
%struct.FuncDecl = type { i32, [4 x i8], %struct.Signature_, i32, i32, %union.anon.8 }
%union.anon.8 = type { %struct.anon.9 }
%struct.anon.9 = type { i16, %union.anon.10 }
%union.anon.10 = type { ptr }
%struct.DefineDecl = type { i8, %union.anon.4 }
%union.anon.4 = type { %struct.anon.5 }
%struct.anon.5 = type { %union.anon.6, ptr }
%union.anon.6 = type { %struct.anon.7 }
%struct.anon.7 = type { ptr, ptr, %union.SourceSpan }

@.str.2 = private unnamed_addr constant [36 x i8] c"FATAL ERROR %s -> in %s @ in %s:%d \00", align 1
@.str.3 = private unnamed_addr constant [22 x i8] c"Should be unreachable\00", align 1
@.str.4 = private unnamed_addr constant [111 x i8] c"generated/home/dtcxzyw/WorkSpace/Projects/compilers/llvm-opt-benchmark/bench/c3c/c3c/src/compiler/sema_decls.c\00", align 1
@__func__.sema_analyse_parameterized_define = private unnamed_addr constant [34 x i8] c"sema_analyse_parameterized_define\00", align 1

; Function Attrs: nounwind uwtable
define internal zeroext i1 @sema_analyse_parameterized_define(ptr noundef %0, ptr noundef %1) #0 {
  %3 = alloca ptr, align 8
  %4 = alloca ptr, align 8
  %5 = alloca i1, align 1
  %6 = alloca ptr, align 8
  %7 = alloca ptr, align 8
  %8 = alloca ptr, align 8
  %9 = alloca ptr, align 8
  %10 = alloca %union.SourceSpan, align 8
  %11 = alloca ptr, align 8
  %12 = alloca ptr, align 8
  store ptr %0, ptr %6, align 8
  store ptr %1, ptr %7, align 8
  %13 = load ptr, ptr %7, align 8
  %14 = getelementptr inbounds %struct.Decl_, ptr %13, i32 0, i32 11
  %15 = load i8, ptr %14, align 8
  %16 = and i8 %15, 31
  %17 = zext i8 %16 to i32
  switch i32 %17, label %36 [
    i32 1, label %18
  ]

18:                                               ; preds = %2
  %19 = load ptr, ptr %7, align 8
  %20 = getelementptr inbounds %struct.Decl_, ptr %19, i32 0, i32 11
  %21 = getelementptr inbounds %struct.DefineDecl, ptr %20, i32 0, i32 1
  %22 = getelementptr inbounds %struct.anon.5, ptr %21, i32 0, i32 0
  %23 = getelementptr inbounds %struct.anon.7, ptr %22, i32 0, i32 0
  %24 = load ptr, ptr %23, align 8
  store ptr %24, ptr %8, align 8
  %25 = load ptr, ptr %7, align 8
  %26 = getelementptr inbounds %struct.Decl_, ptr %25, i32 0, i32 11
  %27 = getelementptr inbounds %struct.DefineDecl, ptr %26, i32 0, i32 1
  %28 = getelementptr inbounds %struct.anon.5, ptr %27, i32 0, i32 0
  %29 = getelementptr inbounds %struct.anon.7, ptr %28, i32 0, i32 1
  %30 = load ptr, ptr %29, align 8
  store ptr %30, ptr %9, align 8
  %31 = load ptr, ptr %7, align 8
  %32 = getelementptr inbounds %struct.Decl_, ptr %31, i32 0, i32 11
  %33 = getelementptr inbounds %struct.DefineDecl, ptr %32, i32 0, i32 1
  %34 = getelementptr inbounds %struct.anon.5, ptr %33, i32 0, i32 0
  %35 = getelementptr inbounds %struct.anon.7, ptr %34, i32 0, i32 2
  call void @llvm.memcpy.p0.p0.i64(ptr align 8 %10, ptr align 8 %35, i64 8, i1 false)
  br label %39

36:                                               ; preds = %2
  br label %37

37:                                               ; preds = %36
  call void (ptr, ...) @error_exit(ptr noundef @.str.2, ptr noundef @.str.3, ptr noundef @__func__.sema_analyse_parameterized_define, ptr noundef @.str.4, i32 noundef 3620) #6
  unreachable

38:                                               ; No predecessors!
  br label %39

39:                                               ; preds = %38, %18
  %40 = load ptr, ptr %7, align 8
  %41 = getelementptr inbounds %struct.Decl_, ptr %40, i32 0, i32 11
  %42 = getelementptr inbounds %struct.DefineDecl, ptr %41, i32 0, i32 1
  %43 = getelementptr inbounds %struct.anon.5, ptr %42, i32 0, i32 1
  %44 = load ptr, ptr %43, align 8
  store ptr %44, ptr %11, align 8
  %45 = load ptr, ptr %6, align 8
  %46 = load ptr, ptr %8, align 8
  %47 = load ptr, ptr %9, align 8
  %48 = load ptr, ptr %11, align 8
  %49 = getelementptr inbounds %union.SourceSpan, ptr %10, i32 0, i32 0
  %50 = load i64, ptr %49, align 8
  %51 = call ptr @sema_analyse_parameterized_identifier(ptr noundef %45, ptr noundef %46, ptr noundef %47, i64 %50, ptr noundef %48)
  store ptr %51, ptr %12, align 8
  %52 = load ptr, ptr %12, align 8
  store ptr %52, ptr %3, align 8
  %53 = load ptr, ptr %3, align 8
  %54 = icmp ne ptr %53, null
  br i1 %54, label %55, label %62

55:                                               ; preds = %39
  %56 = load ptr, ptr %3, align 8
  %57 = getelementptr inbounds %struct.Decl_, ptr %56, i32 0, i32 3
  %58 = load i64, ptr %57, align 8
  %59 = and i64 %58, 127
  %60 = trunc i64 %59 to i32
  %61 = icmp ne i32 %60, 0
  br label %62

62:                                               ; preds = %55, %39
  %63 = phi i1 [ true, %39 ], [ %61, %55 ]
  br i1 %63, label %75, label %64

64:                                               ; preds = %62
  %65 = load ptr, ptr %7, align 8
  store ptr %65, ptr %4, align 8
  %66 = load ptr, ptr %4, align 8
  %67 = getelementptr inbounds %struct.Decl_, ptr %66, i32 0, i32 3
  %68 = load i64, ptr %67, align 8
  %69 = and i64 %68, -128
  store i64 %69, ptr %67, align 8
  %70 = load ptr, ptr %4, align 8
  %71 = getelementptr inbounds %struct.Decl_, ptr %70, i32 0, i32 3
  %72 = load i64, ptr %71, align 8
  %73 = and i64 %72, -897
  %74 = or i64 %73, 256
  store i64 %74, ptr %71, align 8
  store i1 false, ptr %5, align 1
  br label %94

75:                                               ; preds = %62
  %76 = load ptr, ptr %7, align 8
  %77 = getelementptr inbounds %struct.Decl_, ptr %76, i32 0, i32 11
  %78 = load i8, ptr %77, align 8
  %79 = and i8 %78, 31
  %80 = zext i8 %79 to i32
  switch i32 %80, label %91 [
    i32 1, label %81
  ]

81:                                               ; preds = %75
  %82 = load ptr, ptr %12, align 8
  %83 = load ptr, ptr %7, align 8
  %84 = getelementptr inbounds %struct.Decl_, ptr %83, i32 0, i32 11
  %85 = getelementptr inbounds %struct.DefineDecl, ptr %84, i32 0, i32 1
  store ptr %82, ptr %85, align 8
  %86 = load ptr, ptr %12, align 8
  %87 = getelementptr inbounds %struct.Decl_, ptr %86, i32 0, i32 10
  %88 = load ptr, ptr %87, align 8
  %89 = load ptr, ptr %7, align 8
  %90 = getelementptr inbounds %struct.Decl_, ptr %89, i32 0, i32 10
  store ptr %88, ptr %90, align 8
  store i1 true, ptr %5, align 1
  br label %94

91:                                               ; preds = %75
  br label %92

92:                                               ; preds = %91
  call void (ptr, ...) @error_exit(ptr noundef @.str.2, ptr noundef @.str.3, ptr noundef @__func__.sema_analyse_parameterized_define, ptr noundef @.str.4, i32 noundef 3632) #6
  unreachable

93:                                               ; No predecessors!
  br label %94

94:                                               ; preds = %93, %81, %64
  %95 = load i1, ptr %5, align 1
  ret i1 %95
}

; Function Attrs: nounwind uwtable
define internal zeroext i1 @sema_analyse_attributes(ptr noundef %0, ptr noundef %1, ptr noundef %2, i32 noundef %3, ptr noundef %4) #0 {
  %6 = alloca ptr, align 8
  %7 = alloca ptr, align 8
  %8 = alloca ptr, align 8
  %9 = alloca i32, align 4
  %10 = alloca ptr, align 8
  store ptr %0, ptr %6, align 8
  store ptr %1, ptr %7, align 8
  store ptr %2, ptr %8, align 8
  store i32 %3, ptr %9, align 4
  store ptr %4, ptr %10, align 8
  %11 = load ptr, ptr %6, align 8
  %12 = load ptr, ptr %7, align 8
  %13 = load ptr, ptr %8, align 8
  %14 = load i32, ptr %9, align 4
  %15 = load ptr, ptr %10, align 8
  %16 = call zeroext i1 @sema_analyse_attributes_inner(ptr noundef %11, ptr noundef %12, ptr noundef %13, i32 noundef %14, ptr noundef null, ptr noundef %15)
  ret i1 %16
}

; Function Attrs: nounwind uwtable
define internal zeroext i1 @sema_analyse_define(ptr noundef %0, ptr noundef %1, ptr noundef %2) #0 {
  %4 = alloca ptr, align 8
  %5 = alloca i1, align 1
  %6 = alloca ptr, align 8
  %7 = alloca ptr, align 8
  %8 = alloca ptr, align 8
  %9 = alloca ptr, align 8
  store ptr %0, ptr %6, align 8
  store ptr %1, ptr %7, align 8
  store ptr %2, ptr %8, align 8
  %10 = load ptr, ptr %6, align 8
  %11 = load ptr, ptr %7, align 8
  %12 = load ptr, ptr %7, align 8
  %13 = getelementptr inbounds %struct.Decl_, ptr %12, i32 0, i32 9
  %14 = load ptr, ptr %13, align 8
  %15 = load ptr, ptr %8, align 8
  %16 = call zeroext i1 @sema_analyse_attributes(ptr noundef %10, ptr noundef %11, ptr noundef %14, i32 noundef 256, ptr noundef %15)
  br i1 %16, label %28, label %17

17:                                               ; preds = %3
  %18 = load ptr, ptr %7, align 8
  store ptr %18, ptr %4, align 8
  %19 = load ptr, ptr %4, align 8
  %20 = getelementptr inbounds %struct.Decl_, ptr %19, i32 0, i32 3
  %21 = load i64, ptr %20, align 8
  %22 = and i64 %21, -128
  store i64 %22, ptr %20, align 8
  %23 = load ptr, ptr %4, align 8
  %24 = getelementptr inbounds %struct.Decl_, ptr %23, i32 0, i32 3
  %25 = load i64, ptr %24, align 8
  %26 = and i64 %25, -897
  %27 = or i64 %26, 256
  store i64 %27, ptr %24, align 8
  store i1 false, ptr %5, align 1
  br label %80

28:                                               ; preds = %3
  %29 = load ptr, ptr %8, align 8
  %30 = load i8, ptr %29, align 1
  %31 = trunc i8 %30 to i1
  br i1 %31, label %32, label %33

32:                                               ; preds = %28
  store i1 true, ptr %5, align 1
  br label %80

33:                                               ; preds = %28
  %34 = load ptr, ptr %7, align 8
  %35 = getelementptr inbounds %struct.Decl_, ptr %34, i32 0, i32 11
  %36 = load i8, ptr %35, align 8
  %37 = and i8 %36, 31
  %38 = zext i8 %37 to i32
  %39 = icmp eq i32 %38, 0
  br i1 %39, label %40, label %76

40:                                               ; preds = %33
  %41 = load ptr, ptr %6, align 8
  %42 = load ptr, ptr %7, align 8
  %43 = getelementptr inbounds %struct.Decl_, ptr %42, i32 0, i32 11
  %44 = getelementptr inbounds %struct.DefineDecl, ptr %43, i32 0, i32 1
  %45 = getelementptr inbounds %struct.anon.5, ptr %44, i32 0, i32 0
  %46 = getelementptr inbounds %struct.anon.7, ptr %45, i32 0, i32 1
  %47 = load ptr, ptr %46, align 8
  %48 = load ptr, ptr %7, align 8
  %49 = getelementptr inbounds %struct.Decl_, ptr %48, i32 0, i32 11
  %50 = getelementptr inbounds %struct.DefineDecl, ptr %49, i32 0, i32 1
  %51 = getelementptr inbounds %struct.anon.5, ptr %50, i32 0, i32 0
  %52 = getelementptr inbounds %struct.anon.7, ptr %51, i32 0, i32 0
  %53 = load ptr, ptr %52, align 8
  %54 = load ptr, ptr %7, align 8
  %55 = getelementptr inbounds %struct.Decl_, ptr %54, i32 0, i32 11
  %56 = getelementptr inbounds %struct.DefineDecl, ptr %55, i32 0, i32 1
  %57 = getelementptr inbounds %struct.anon.5, ptr %56, i32 0, i32 0
  %58 = getelementptr inbounds %struct.anon.7, ptr %57, i32 0, i32 2
  %59 = getelementptr inbounds %union.SourceSpan, ptr %58, i32 0, i32 0
  %60 = load i64, ptr %59, align 8
  %61 = call ptr @sema_resolve_symbol(ptr noundef %41, ptr noundef %47, ptr noundef %53, i64 %60)
  store ptr %61, ptr %9, align 8
  %62 = load ptr, ptr %6, align 8
  %63 = load ptr, ptr %9, align 8
  %64 = call zeroext i1 @sema_analyse_decl(ptr noundef %62, ptr noundef %63)
  br i1 %64, label %66, label %65

65:                                               ; preds = %40
  store i1 false, ptr %5, align 1
  br label %80

66:                                               ; preds = %40
  %67 = load ptr, ptr %9, align 8
  %68 = getelementptr inbounds %struct.Decl_, ptr %67, i32 0, i32 10
  %69 = load ptr, ptr %68, align 8
  %70 = load ptr, ptr %7, align 8
  %71 = getelementptr inbounds %struct.Decl_, ptr %70, i32 0, i32 10
  store ptr %69, ptr %71, align 8
  %72 = load ptr, ptr %9, align 8
  %73 = load ptr, ptr %7, align 8
  %74 = getelementptr inbounds %struct.Decl_, ptr %73, i32 0, i32 11
  %75 = getelementptr inbounds %struct.DefineDecl, ptr %74, i32 0, i32 1
  store ptr %72, ptr %75, align 8
  store i1 true, ptr %5, align 1
  br label %80

76:                                               ; preds = %33
  %77 = load ptr, ptr %6, align 8
  %78 = load ptr, ptr %7, align 8
  %79 = call zeroext i1 @sema_analyse_parameterized_define(ptr noundef %77, ptr noundef %78)
  store i1 %79, ptr %5, align 1
  br label %80

80:                                               ; preds = %76, %66, %65, %32, %17
  %81 = load i1, ptr %5, align 1
  ret i1 %81
}