; Function Attrs: nounwind uwtable
define internal fastcc noundef zeroext i1 @sema_analyse_define(ptr noundef %0, ptr noundef %1, ptr nocapture noundef %2) unnamed_addr #0 {
  %4 = getelementptr inbounds i8, ptr %1, i64 64
  %5 = load ptr, ptr %4, align 8
  %6 = tail call fastcc noundef zeroext i1 @sema_analyse_attributes_inner(ptr noundef %0, ptr noundef %1, ptr noundef %5, i32 noundef 256, ptr noundef null, ptr noundef %2)
  br i1 %6, label %12, label %7

7:                                                ; preds = %3
  %8 = getelementptr inbounds i8, ptr %1, i64 24
  %9 = load i64, ptr %8, align 8
  %10 = and i64 %9, -1024
  %11 = or disjoint i64 %10, 256
  store i64 %11, ptr %8, align 8
  br label %sema_analyse_parameterized_define.exit

12:                                               ; preds = %3
  %13 = load i8, ptr %2, align 1
  %14 = trunc i8 %13 to i1
  br i1 %14, label %sema_analyse_parameterized_define.exit, label %15

15:                                               ; preds = %12
  %16 = getelementptr inbounds i8, ptr %1, i64 80
  %17 = load i8, ptr %16, align 8
  %18 = and i8 %17, 31
  switch i8 %18, label %41 [
    i8 0, label %19
    i8 1, label %32
  ]

19:                                               ; preds = %15
  %20 = getelementptr inbounds i8, ptr %1, i64 88
  %21 = getelementptr inbounds i8, ptr %1, i64 96
  %22 = load ptr, ptr %21, align 8
  %23 = load ptr, ptr %20, align 8
  %24 = getelementptr inbounds i8, ptr %1, i64 104
  %25 = load i64, ptr %24, align 8
  %26 = tail call ptr @sema_resolve_symbol(ptr noundef %0, ptr noundef %22, ptr noundef %23, i64 %25) #10
  %27 = tail call zeroext i1 @sema_analyse_decl(ptr noundef %0, ptr noundef %26)
  br i1 %27, label %28, label %sema_analyse_parameterized_define.exit

28:                                               ; preds = %19
  %29 = getelementptr inbounds i8, ptr %26, i64 72
  %30 = load ptr, ptr %29, align 8
  %31 = getelementptr inbounds i8, ptr %1, i64 72
  store ptr %30, ptr %31, align 8
  store ptr %26, ptr %20, align 8
  br label %sema_analyse_parameterized_define.exit

32:                                               ; preds = %15
  %33 = getelementptr inbounds i8, ptr %1, i64 88
  %34 = load ptr, ptr %33, align 8
  %35 = getelementptr inbounds i8, ptr %1, i64 96
  %36 = load ptr, ptr %35, align 8
  %37 = getelementptr inbounds i8, ptr %1, i64 104
  %.sroa.0.0.copyload.i = load i64, ptr %37, align 8
  %38 = getelementptr inbounds i8, ptr %1, i64 112
  %39 = load ptr, ptr %38, align 8
  %40 = tail call ptr @sema_analyse_parameterized_identifier(ptr noundef %0, ptr noundef %34, ptr noundef %36, i64 %.sroa.0.0.copyload.i, ptr noundef %39)
  %.not.i = icmp eq ptr %40, null
  br i1 %.not.i, label %.critedge.i, label %42

41:                                               ; preds = %15
  tail call void (ptr, ...) @error_exit(ptr noundef nonnull @.str.2, ptr noundef nonnull @.str.3, ptr noundef nonnull @__func__.sema_analyse_parameterized_define, ptr noundef nonnull @.str.4, i32 noundef 3620) #11
  unreachable

42:                                               ; preds = %32
  %43 = getelementptr inbounds i8, ptr %40, i64 24
  %44 = load i64, ptr %43, align 8
  %45 = and i64 %44, 127
  %.not23.i = icmp eq i64 %45, 0
  br i1 %.not23.i, label %46, label %.critedge.i

46:                                               ; preds = %42
  %47 = getelementptr inbounds i8, ptr %1, i64 24
  %48 = load i64, ptr %47, align 8
  %49 = and i64 %48, -1024
  %50 = or disjoint i64 %49, 256
  store i64 %50, ptr %47, align 8
  br label %sema_analyse_parameterized_define.exit

.critedge.i:                                      ; preds = %42, %32
  %51 = load i8, ptr %16, align 8
  %52 = and i8 %51, 31
  %cond1.i = icmp eq i8 %52, 1
  br i1 %cond1.i, label %53, label %57

53:                                               ; preds = %.critedge.i
  store ptr %40, ptr %33, align 8
  %54 = getelementptr inbounds i8, ptr %40, i64 72
  %55 = load ptr, ptr %54, align 8
  %56 = getelementptr inbounds i8, ptr %1, i64 72
  store ptr %55, ptr %56, align 8
  br label %sema_analyse_parameterized_define.exit

57:                                               ; preds = %.critedge.i
  tail call void (ptr, ...) @error_exit(ptr noundef nonnull @.str.2, ptr noundef nonnull @.str.3, ptr noundef nonnull @__func__.sema_analyse_parameterized_define, ptr noundef nonnull @.str.4, i32 noundef 3632) #11
  unreachable

sema_analyse_parameterized_define.exit:           ; preds = %53, %46, %19, %12, %28, %7
  %.0 = phi i1 [ true, %28 ], [ false, %7 ], [ true, %12 ], [ false, %19 ], [ true, %53 ], [ false, %46 ]
  ret i1 %.0
}